target datalayout = "e-m:e-p270:32:32-p271:32:32-p272:64:64-i64:64-i128:128-f80:128-n8:16:32:64-S128"
target triple = "x86_64-pc-linux-gnu"

%struct.AVRational = type { i32, i32 }
%struct.AVStream = type { ptr, i32, i32, ptr, ptr, %struct.AVRational, i64, i64, i64, i32, i32, %struct.AVRational, ptr, %struct.AVRational, %struct.AVPacket, i32, %struct.AVRational, i32 }
%struct.AVPacket = type { ptr, i64, i64, ptr, i32, i32, i32, ptr, i32, i64, i64, ptr, ptr, %struct.AVRational }
%struct.MovieStream = type { ptr, ptr, ptr, i64, i64, ptr, i32 }
%struct.AVCodecParameters = type { i32, i32, i32, ptr, i32, ptr, i32, i32, i64, i32, i32, i32, i32, i32, i32, %struct.AVRational, %struct.AVRational, i32, i32, i32, i32, i32, i32, i32, %struct.AVChannelLayout, i32, i32, i32, i32, i32, i32 }
%struct.AVChannelLayout = type { i32, i32, %union.anon.2, ptr }
%union.anon.2 = type { i64 }
%struct.AVCodecContext = type { ptr, i32, i32, ptr, i32, i32, ptr, ptr, ptr, i64, i32, i32, ptr, i32, %struct.AVRational, %struct.AVRational, %struct.AVRational, i32, i32, i32, i32, i32, %struct.AVRational, i32, i32, i32, i32, i32, i32, i32, i32, i32, i32, i32, ptr, ptr, i32, float, float, float, float, float, float, float, float, float, i32, i32, i32, i32, i32, i32, i32, i32, i32, i32, i32, i32, ptr, ptr, ptr, i32, i32, i32, i32, i32, i32, i32, i32, i32, i32, %struct.AVChannelLayout, i32, i32, i32, i32, i32, i32, i32, i32, ptr, i32, i32, i32, float, float, i32, i32, i32, i32, i32, ptr, i64, i64, float, float, i32, i32, ptr, ptr, i32, i32, i32, i32, i32, ptr, ptr, ptr, ptr, i32, i32, [8 x i64], i32, i32, i32, i32, i32, i32, i32, ptr, ptr, i32, i32, i32, i32, i32, i32, i32, i32, i32, i32, ptr, ptr, i32, i32, ptr, ptr, ptr, ptr, i32, i32, i64, i32, i32, i64, ptr, i64, ptr, i32, ptr, i32 }

@.str.48 = private unnamed_addr constant [26 x i8] c"Failed to find any codec\0A\00", align 1
@.str.49 = private unnamed_addr constant [22 x i8] c"Failed to open codec\0A\00", align 1

; Function Attrs: nounwind uwtable
define internal i32 @open_stream(ptr noundef %0, ptr noundef %1, i32 noundef %2) #1 {
  %4 = alloca i32, align 4
  %5 = alloca ptr, align 8
  %6 = alloca ptr, align 8
  %7 = alloca i32, align 4
  %8 = alloca ptr, align 8
  %9 = alloca i32, align 4
  %10 = alloca i32, align 4
  store ptr %0, ptr %5, align 8, !tbaa !4
  store ptr %1, ptr %6, align 8, !tbaa !105
  store i32 %2, ptr %7, align 4, !tbaa !26
  call void @llvm.lifetime.start.p0(i64 8, ptr %8) #11
  call void @llvm.lifetime.start.p0(i64 4, ptr %9) #11
  %11 = load ptr, ptr %6, align 8, !tbaa !105
  %12 = getelementptr inbounds nuw %struct.MovieStream, ptr %11, i32 0, i32 1
  %13 = load ptr, ptr %12, align 8, !tbaa !74
  %14 = getelementptr inbounds nuw %struct.AVStream, ptr %13, i32 0, i32 3
  %15 = load ptr, ptr %14, align 8, !tbaa !89
  %16 = getelementptr inbounds nuw %struct.AVCodecParameters, ptr %15, i32 0, i32 1
  %17 = load i32, ptr %16, align 4, !tbaa !150
  %18 = call ptr @avcodec_find_decoder(i32 noundef %17)
  store ptr %18, ptr %8, align 8, !tbaa !151
  %19 = load ptr, ptr %8, align 8, !tbaa !151
  %20 = icmp ne ptr %19, null
  br i1 %20, label %23, label %21

21:                                               ; preds = %3
  %22 = load ptr, ptr %5, align 8, !tbaa !4
  call void (ptr, i32, ptr, ...) @av_log(ptr noundef %22, i32 noundef 16, ptr noundef @.str.48)
  store i32 -22, ptr %4, align 4
  store i32 1, ptr %10, align 4
  br label %86

23:                                               ; preds = %3
  %24 = load ptr, ptr %8, align 8, !tbaa !151
  %25 = call ptr @avcodec_alloc_context3(ptr noundef %24)
  %26 = load ptr, ptr %6, align 8, !tbaa !105
  %27 = getelementptr inbounds nuw %struct.MovieStream, ptr %26, i32 0, i32 2
  store ptr %25, ptr %27, align 8, !tbaa !116
  %28 = load ptr, ptr %6, align 8, !tbaa !105
  %29 = getelementptr inbounds nuw %struct.MovieStream, ptr %28, i32 0, i32 2
  %30 = load ptr, ptr %29, align 8, !tbaa !116
  %31 = icmp ne ptr %30, null
  br i1 %31, label %33, label %32

32:                                               ; preds = %23
  store i32 -12, ptr %4, align 4
  store i32 1, ptr %10, align 4
  br label %86

33:                                               ; preds = %23
  %34 = load ptr, ptr %6, align 8, !tbaa !105
  %35 = load ptr, ptr %6, align 8, !tbaa !105
  %36 = getelementptr inbounds nuw %struct.MovieStream, ptr %35, i32 0, i32 2
  %37 = load ptr, ptr %36, align 8, !tbaa !116
  %38 = getelementptr inbounds nuw %struct.AVCodecContext, ptr %37, i32 0, i32 8
  store ptr %34, ptr %38, align 8, !tbaa !152
  %39 = load ptr, ptr %6, align 8, !tbaa !105
  %40 = getelementptr inbounds nuw %struct.MovieStream, ptr %39, i32 0, i32 2
  %41 = load ptr, ptr %40, align 8, !tbaa !116
  %42 = getelementptr inbounds nuw %struct.AVCodecContext, ptr %41, i32 0, i32 80
  store ptr @get_buffer, ptr %42, align 8, !tbaa !160
  %43 = load ptr, ptr %6, align 8, !tbaa !105
  %44 = getelementptr inbounds nuw %struct.MovieStream, ptr %43, i32 0, i32 2
  %45 = load ptr, ptr %44, align 8, !tbaa !116
  %46 = load ptr, ptr %6, align 8, !tbaa !105
  %47 = getelementptr inbounds nuw %struct.MovieStream, ptr %46, i32 0, i32 1
  %48 = load ptr, ptr %47, align 8, !tbaa !74
  %49 = getelementptr inbounds nuw %struct.AVStream, ptr %48, i32 0, i32 3
  %50 = load ptr, ptr %49, align 8, !tbaa !89
  %51 = call i32 @avcodec_parameters_to_context(ptr noundef %45, ptr noundef %50)
  store i32 %51, ptr %9, align 4, !tbaa !26
  %52 = load i32, ptr %9, align 4, !tbaa !26
  %53 = icmp slt i32 %52, 0
  br i1 %53, label %54, label %56

54:                                               ; preds = %33
  %55 = load i32, ptr %9, align 4, !tbaa !26
  store i32 %55, ptr %4, align 4
  store i32 1, ptr %10, align 4
  br label %86

56:                                               ; preds = %33
  %57 = load ptr, ptr %6, align 8, !tbaa !105
  %58 = getelementptr inbounds nuw %struct.MovieStream, ptr %57, i32 0, i32 2
  %59 = load ptr, ptr %58, align 8, !tbaa !116
  %60 = getelementptr inbounds nuw %struct.AVCodecContext, ptr %59, i32 0, i32 15
  %61 = load ptr, ptr %6, align 8, !tbaa !105
  %62 = getelementptr inbounds nuw %struct.MovieStream, ptr %61, i32 0, i32 1
  %63 = load ptr, ptr %62, align 8, !tbaa !74
  %64 = getelementptr inbounds nuw %struct.AVStream, ptr %63, i32 0, i32 5
  call void @llvm.memcpy.p0.p0.i64(ptr align 4 %60, ptr align 8 %64, i64 8, i1 false), !tbaa.struct !142
  %65 = load i32, ptr %7, align 4, !tbaa !26
  %66 = icmp ne i32 %65, 0
  br i1 %66, label %70, label %67

67:                                               ; preds = %56
  %68 = load ptr, ptr %5, align 8, !tbaa !4
  %69 = call i32 @ff_filter_get_nb_threads(ptr noundef %68) #12
  store i32 %69, ptr %7, align 4, !tbaa !26
  br label %70

70:                                               ; preds = %67, %56
  %71 = load i32, ptr %7, align 4, !tbaa !26
  %72 = load ptr, ptr %6, align 8, !tbaa !105
  %73 = getelementptr inbounds nuw %struct.MovieStream, ptr %72, i32 0, i32 2
  %74 = load ptr, ptr %73, align 8, !tbaa !116
  %75 = getelementptr inbounds nuw %struct.AVCodecContext, ptr %74, i32 0, i32 116
  store i32 %71, ptr %75, align 8, !tbaa !161
  %76 = load ptr, ptr %6, align 8, !tbaa !105
  %77 = getelementptr inbounds nuw %struct.MovieStream, ptr %76, i32 0, i32 2
  %78 = load ptr, ptr %77, align 8, !tbaa !116
  %79 = load ptr, ptr %8, align 8, !tbaa !151
  %80 = call i32 @avcodec_open2(ptr noundef %78, ptr noundef %79, ptr noundef null)
  store i32 %80, ptr %9, align 4, !tbaa !26
  %81 = icmp slt i32 %80, 0
  br i1 %81, label %82, label %85

82:                                               ; preds = %70
  %83 = load ptr, ptr %5, align 8, !tbaa !4
  call void (ptr, i32, ptr, ...) @av_log(ptr noundef %83, i32 noundef 16, ptr noundef @.str.49)
  %84 = load i32, ptr %9, align 4, !tbaa !26
  store i32 %84, ptr %4, align 4
  store i32 1, ptr %10, align 4
  br label %86

85:                                               ; preds = %70
  store i32 0, ptr %4, align 4
  store i32 1, ptr %10, align 4
  br label %86

86:                                               ; preds = %85, %82, %54, %32, %21
  call void @llvm.lifetime.end.p0(i64 4, ptr %9) #11
  call void @llvm.lifetime.end.p0(i64 8, ptr %8) #11
  %87 = load i32, ptr %4, align 4
  ret i32 %87
}