; Function Attrs: nounwind uwtable
define internal fastcc range(i32 -2147483648, 1) i32 @open_stream(ptr noundef %0, ptr noundef %1, i32 noundef %2) unnamed_addr #1 {
  %4 = getelementptr inbounds nuw i8, ptr %1, i64 8
  %5 = load ptr, ptr %4, align 8, !tbaa !74
  %6 = getelementptr inbounds nuw i8, ptr %5, i64 16
  %7 = load ptr, ptr %6, align 8, !tbaa !70
  %8 = getelementptr inbounds nuw i8, ptr %7, i64 4
  %9 = load i32, ptr %8, align 4, !tbaa !136
  %10 = tail call ptr @avcodec_find_decoder(i32 noundef %9) #13
  %.not = icmp eq ptr %10, null
  br i1 %.not, label %.sink.split, label %11

11:                                               ; preds = %3
  %12 = tail call ptr @avcodec_alloc_context3(ptr noundef nonnull %10) #13
  %13 = getelementptr inbounds nuw i8, ptr %1, i64 16
  store ptr %12, ptr %13, align 8, !tbaa !106
  %.not29 = icmp eq ptr %12, null
  br i1 %.not29, label %35, label %14

14:                                               ; preds = %11
  %15 = getelementptr inbounds nuw i8, ptr %12, i64 48
  store ptr %1, ptr %15, align 8, !tbaa !137
  %16 = getelementptr inbounds nuw i8, ptr %12, i64 408
  store ptr @get_buffer, ptr %16, align 8, !tbaa !145
  %17 = load ptr, ptr %4, align 8, !tbaa !74
  %18 = getelementptr inbounds nuw i8, ptr %17, i64 16
  %19 = load ptr, ptr %18, align 8, !tbaa !70
  %20 = tail call i32 @avcodec_parameters_to_context(ptr noundef nonnull %12, ptr noundef %19) #13
  %21 = icmp slt i32 %20, 0
  br i1 %21, label %35, label %22

22:                                               ; preds = %14
  %23 = load ptr, ptr %13, align 8, !tbaa !106
  %24 = getelementptr inbounds nuw i8, ptr %23, i64 92
  %25 = load ptr, ptr %4, align 8, !tbaa !74
  %26 = getelementptr inbounds nuw i8, ptr %25, i64 32
  %27 = load i64, ptr %26, align 8
  store i64 %27, ptr %24, align 4
  %.not30 = icmp eq i32 %2, 0
  br i1 %.not30, label %28, label %30

28:                                               ; preds = %22
  %29 = tail call i32 @ff_filter_get_nb_threads(ptr noundef %0) #14
  br label %30

30:                                               ; preds = %28, %22
  %.023 = phi i32 [ %2, %22 ], [ %29, %28 ]
  %31 = load ptr, ptr %13, align 8, !tbaa !106
  %32 = getelementptr inbounds nuw i8, ptr %31, i64 656
  store i32 %.023, ptr %32, align 8, !tbaa !146
  %33 = tail call i32 @avcodec_open2(ptr noundef %31, ptr noundef nonnull %10, ptr noundef null) #13
  %34 = icmp slt i32 %33, 0
  br i1 %34, label %.sink.split, label %35

.sink.split:                                      ; preds = %30, %3
  %.str.49.sink = phi ptr [ @.str.48, %3 ], [ @.str.49, %30 ]
  %.0.ph = phi i32 [ -22, %3 ], [ %33, %30 ]
  tail call void (ptr, i32, ptr, ...) @av_log(ptr noundef %0, i32 noundef 16, ptr noundef nonnull %.str.49.sink) #13
  br label %35

35:                                               ; preds = %.sink.split, %30, %14, %11
  %.0 = phi i32 [ -12, %11 ], [ %20, %14 ], [ 0, %30 ], [ %.0.ph, %.sink.split ]
  ret i32 %.0
}